target datalayout = "e-m:e-p270:32:32-p271:32:32-p272:64:64-i64:64-i128:128-f80:128-n8:16:32:64-S128"
target triple = "x86_64-pc-linux-gnu"

%"struct.google::protobuf::internal::ParseTable" = type { ptr, ptr, i32, i64, i64, i64, i64, ptr, i8 }

; Function Attrs: mustprogress uwtable
define internal noundef zeroext i1 @_ZN6google8protobuf8internal31MergePartialFromCodedStreamImplINS1_12_GLOBAL__N_123UnknownFieldHandlerLiteEEEbPNS0_11MessageLiteERKNS1_10ParseTableEPNS0_2io16CodedInputStreamE(ptr noundef %0, ptr noundef nonnull align 8 dereferenceable(72) %1, ptr noundef %2) #4 {
  %4 = alloca i1, align 1
  %5 = alloca ptr, align 8
  %6 = alloca ptr, align 8
  %7 = alloca ptr, align 8
  store ptr %0, ptr %5, align 8, !tbaa !3
  store ptr %1, ptr %6, align 8, !tbaa !8
  store ptr %2, ptr %7, align 8, !tbaa !10
  %8 = load ptr, ptr %6, align 8, !tbaa !8
  %9 = getelementptr inbounds nuw %"struct.google::protobuf::internal::ParseTable", ptr %8, i32 0, i32 2
  %10 = load i32, ptr %9, align 8, !tbaa !12
  %11 = icmp sle i32 %10, 15
  br i1 %11, label %12, label %17

12:                                               ; preds = %3
  %13 = load ptr, ptr %5, align 8, !tbaa !3
  %14 = load ptr, ptr %6, align 8, !tbaa !8
  %15 = load ptr, ptr %7, align 8, !tbaa !10
  %16 = call noundef zeroext i1 @_ZN6google8protobuf8internal34MergePartialFromCodedStreamInlinedINS1_12_GLOBAL__N_123UnknownFieldHandlerLiteELj127EEEbPNS0_11MessageLiteERKNS1_10ParseTableEPNS0_2io16CodedInputStreamE(ptr noundef %13, ptr noundef nonnull align 8 dereferenceable(72) %14, ptr noundef %15)
  store i1 %16, ptr %4, align 1
  br label %32

17:                                               ; preds = %3
  %18 = load ptr, ptr %6, align 8, !tbaa !8
  %19 = getelementptr inbounds nuw %"struct.google::protobuf::internal::ParseTable", ptr %18, i32 0, i32 2
  %20 = load i32, ptr %19, align 8, !tbaa !12
  %21 = icmp sle i32 %20, 2047
  br i1 %21, label %22, label %27

22:                                               ; preds = %17
  %23 = load ptr, ptr %5, align 8, !tbaa !3
  %24 = load ptr, ptr %6, align 8, !tbaa !8
  %25 = load ptr, ptr %7, align 8, !tbaa !10
  %26 = call noundef zeroext i1 @_ZN6google8protobuf8internal34MergePartialFromCodedStreamInlinedINS1_12_GLOBAL__N_123UnknownFieldHandlerLiteELj16383EEEbPNS0_11MessageLiteERKNS1_10ParseTableEPNS0_2io16CodedInputStreamE(ptr noundef %23, ptr noundef nonnull align 8 dereferenceable(72) %24, ptr noundef %25)
  store i1 %26, ptr %4, align 1
  br label %32

27:                                               ; preds = %17
  %28 = load ptr, ptr %5, align 8, !tbaa !3
  %29 = load ptr, ptr %6, align 8, !tbaa !8
  %30 = load ptr, ptr %7, align 8, !tbaa !10
  %31 = call noundef zeroext i1 @_ZN6google8protobuf8internal34MergePartialFromCodedStreamInlinedINS1_12_GLOBAL__N_123UnknownFieldHandlerLiteELj4294967295EEEbPNS0_11MessageLiteERKNS1_10ParseTableEPNS0_2io16CodedInputStreamE(ptr noundef %28, ptr noundef nonnull align 8 dereferenceable(72) %29, ptr noundef %30)
  store i1 %31, ptr %4, align 1
  br label %32

32:                                               ; preds = %27, %22, %12
  %33 = load i1, ptr %4, align 1
  ret i1 %33
}

; Function Attrs: mustprogress uwtable
define noundef zeroext i1 @_ZN6google8protobuf8internal31MergePartialFromCodedStreamLiteEPNS0_11MessageLiteERKNS1_10ParseTableEPNS0_2io16CodedInputStreamE(ptr noundef %0, ptr noundef nonnull align 8 dereferenceable(72) %1, ptr noundef %2) #4 {
  %4 = alloca ptr, align 8
  %5 = alloca ptr, align 8
  %6 = alloca ptr, align 8
  store ptr %0, ptr %4, align 8, !tbaa !3
  store ptr %1, ptr %5, align 8, !tbaa !8
  store ptr %2, ptr %6, align 8, !tbaa !10
  %7 = load ptr, ptr %4, align 8, !tbaa !3
  %8 = load ptr, ptr %5, align 8, !tbaa !8
  %9 = load ptr, ptr %6, align 8, !tbaa !10
  %10 = call noundef zeroext i1 @_ZN6google8protobuf8internal31MergePartialFromCodedStreamImplINS1_12_GLOBAL__N_123UnknownFieldHandlerLiteEEEbPNS0_11MessageLiteERKNS1_10ParseTableEPNS0_2io16CodedInputStreamE(ptr noundef %7, ptr noundef nonnull align 8 dereferenceable(72) %8, ptr noundef %9)
  ret i1 %10
}