; Function Attrs: mustprogress uwtable
define noundef zeroext i1 @_ZN6google8protobuf8internal31MergePartialFromCodedStreamLiteEPNS0_11MessageLiteERKNS1_10ParseTableEPNS0_2io16CodedInputStreamE(ptr noundef %0, ptr noundef nonnull readonly align 8 captures(none) dereferenceable(72) %1, ptr noundef %2) local_unnamed_addr #3 {
  %4 = getelementptr inbounds nuw i8, ptr %1, i64 16
  %5 = load i32, ptr %4, align 8, !tbaa !3
  %6 = icmp slt i32 %5, 16
  br i1 %6, label %7, label %9

7:                                                ; preds = %3
  %8 = tail call fastcc noundef zeroext i1 @_ZN6google8protobuf8internal34MergePartialFromCodedStreamInlinedINS1_12_GLOBAL__N_123UnknownFieldHandlerLiteELj127EEEbPNS0_11MessageLiteERKNS1_10ParseTableEPNS0_2io16CodedInputStreamE(ptr noundef %0, ptr noundef nonnull readonly align 8 dereferenceable(72) %1, ptr noundef %2)
  br label %_ZN6google8protobuf8internal31MergePartialFromCodedStreamImplINS1_12_GLOBAL__N_123UnknownFieldHandlerLiteEEEbPNS0_11MessageLiteERKNS1_10ParseTableEPNS0_2io16CodedInputStreamE.exit

9:                                                ; preds = %3
  %10 = icmp samesign ult i32 %5, 2048
  br i1 %10, label %11, label %13

11:                                               ; preds = %9
  %12 = tail call fastcc noundef zeroext i1 @_ZN6google8protobuf8internal34MergePartialFromCodedStreamInlinedINS1_12_GLOBAL__N_123UnknownFieldHandlerLiteELj16383EEEbPNS0_11MessageLiteERKNS1_10ParseTableEPNS0_2io16CodedInputStreamE(ptr noundef %0, ptr noundef nonnull readonly align 8 dereferenceable(72) %1, ptr noundef %2)
  br label %_ZN6google8protobuf8internal31MergePartialFromCodedStreamImplINS1_12_GLOBAL__N_123UnknownFieldHandlerLiteEEEbPNS0_11MessageLiteERKNS1_10ParseTableEPNS0_2io16CodedInputStreamE.exit

13:                                               ; preds = %9
  %14 = tail call fastcc noundef zeroext i1 @_ZN6google8protobuf8internal34MergePartialFromCodedStreamInlinedINS1_12_GLOBAL__N_123UnknownFieldHandlerLiteELj4294967295EEEbPNS0_11MessageLiteERKNS1_10ParseTableEPNS0_2io16CodedInputStreamE(ptr noundef %0, ptr noundef nonnull readonly align 8 dereferenceable(72) %1, ptr noundef %2)
  br label %_ZN6google8protobuf8internal31MergePartialFromCodedStreamImplINS1_12_GLOBAL__N_123UnknownFieldHandlerLiteEEEbPNS0_11MessageLiteERKNS1_10ParseTableEPNS0_2io16CodedInputStreamE.exit

_ZN6google8protobuf8internal31MergePartialFromCodedStreamImplINS1_12_GLOBAL__N_123UnknownFieldHandlerLiteEEEbPNS0_11MessageLiteERKNS1_10ParseTableEPNS0_2io16CodedInputStreamE.exit: ; preds = %7, %11, %13
  %.0.i = phi i1 [ %8, %7 ], [ %12, %11 ], [ %14, %13 ]
  ret i1 %.0.i
}